ccopy_reg
_reconstructor
p0
(cautonetkit.anm
AbstractNetworkModel
p1
c__builtin__
object
p2
Ntp3
Rp4
((dp5
S'ip'
p6
g0
(cnetworkx.classes.graph
Graph
p7
g2
Ntp8
Rp9
(dp10
S'node'
p11
(dp12
S'r4'
p13
(dp14
S'loopback'
p15
g0
(cnetaddr.ip
IPAddress
p16
g2
Ntp17
Rp18
(I167772164
I4
tp19
bssS'r1'
p20
(dp21
g15
g0
(g16
g2
Ntp22
Rp23
(I167772161
I4
tp24
bssS'r2'
p25
(dp26
g15
g0
(g16
g2
Ntp27
Rp28
(I167772162
I4
tp29
bssS'r3'
p30
(dp31
g15
g0
(g16
g2
Ntp32
Rp33
(I167772163
I4
tp34
bssS'cd_r1_r3'
p35
(dp36
S'subnet'
p37
g0
(cnetaddr.ip
IPNetwork
p38
g2
Ntp39
Rp40
(I167772176
I30
I4
tp41
bsS'cd_id'
p42
I0
sS'collision_domain'
p43
I01
sS'asn'
p44
I1
sS'label'
p45
S'cd_0'
p46
ssS'sw1'
p47
(dp48
g37
g0
(g38
g2
Ntp49
Rp50
(I167772168
I29
I4
tp51
bsg42
I1
sg43
I01
sg44
I1
ssS'sw2'
p52
(dp53
g37
g0
(g38
g2
Ntp54
Rp55
(I167772180
I30
I4
tp56
bsg42
I2
sg43
I01
sg44
I1
sssS'graph'
p57
(dp58
S'asn_blocks'
p59
ccollections
defaultdict
p60
(c__builtin__
list
p61
tp62
Rp63
I1
(lp64
g0
(g38
g2
Ntp65
Rp66
(I167772160
I16
I4
tp67
basssS'edge'
p68
(dp69
g13
(dp70
g47
(dp71
S'ip_address'
p72
g0
(g16
g2
Ntp73
Rp74
(I167772169
I4
tp75
bsS'edge_id'
p76
S'r4_sw1'
p77
sssg20
(dp78
g47
(dp79
g72
g0
(g16
g2
Ntp80
Rp81
(I167772170
I4
tp82
bsg76
S'r1_sw1'
p83
ssg52
(dp84
g72
g0
(g16
g2
Ntp85
Rp86
(I167772181
I4
tp87
bsg76
S'r1_sw2'
p88
ssg35
(dp89
g72
g0
(g16
g2
Ntp90
Rp91
(I167772177
I4
tp92
bsg76
S'r3_r1'
p93
sssg25
(dp94
g47
(dp95
g72
g0
(g16
g2
Ntp96
Rp97
(I167772171
I4
tp98
bsg76
S'sw1_r2'
p99
ssg52
(dp100
g72
g0
(g16
g2
Ntp101
Rp102
(I167772182
I4
tp103
bsg76
S'sw2_r2'
p104
sssg30
(dp105
g35
(dp106
g72
g0
(g16
g2
Ntp107
Rp108
(I167772178
I4
tp109
bsg76
g93
sssg35
(dp110
g20
g89
sg30
g106
ssg47
(dp111
g13
g71
sg20
g79
sg25
g95
ssg52
(dp112
g20
g84
sg25
g100
sssS'adj'
p113
g69
sbsS'bgp'
p114
g0
(cnetworkx.classes.digraph
DiGraph
p115
g2
Ntp116
Rp117
(dp118
g11
(dp119
g13
(dp120
S'color'
p121
S'red'
p122
ssg20
(dp123
g121
g122
ssg25
(dp124
g121
g122
ssg30
(dp125
g121
g122
sssg57
(dp126
sS'succ'
p127
(dp128
g13
(dp129
g20
(dp130
S'type'
p131
S'ibgp'
p132
ssg25
(dp133
g131
g132
ssg30
(dp134
g131
g132
sssg20
(dp135
g13
(dp136
g131
g132
ssg25
(dp137
g131
g132
ssg30
(dp138
g131
g132
sssg25
(dp139
g13
(dp140
g131
g132
ssg20
(dp141
g131
g132
ssg30
(dp142
g131
g132
sssg30
(dp143
g13
(dp144
g131
g132
ssg20
(dp145
g131
g132
ssg25
(dp146
g131
g132
ssssg68
g128
sS'pred'
p147
(dp148
g13
(dp149
g20
g136
sg25
g140
sg30
g144
ssg20
(dp150
g13
g130
sg25
g141
sg30
g145
ssg25
(dp151
g13
g133
sg20
g137
sg30
g146
ssg30
(dp152
g13
g134
sg20
g138
sg25
g142
sssg113
g128
sbsS'phy'
p153
g0
(g7
g2
Ntp154
Rp155
(dp156
g11
(dp157
g13
(dp158
S'platform'
p159
Vcisco
p160
sS'host'
p161
Vdemo
p162
sS'device_type'
p163
Vrouter
p164
sg45
g13
sg44
I1
sS'syntax'
p165
Vios
p166
ssg20
(dp167
g159
g160
sg161
g162
sg163
Vrouter
p168
sg45
g20
sg44
I1
sg165
g166
ssg25
(dp169
g159
g160
sg161
g162
sg163
Vrouter
p170
sg45
g25
sg44
I1
sg165
g166
ssg30
(dp171
g159
g160
sg161
g162
sg163
Vrouter
p172
sg45
g30
sg44
I1
sg165
g166
ssg47
(dp173
g159
g160
sg161
g162
sg163
Vswitch
p174
sg45
g47
sg44
I1
sg165
g166
ssg52
(dp175
g159
g160
sg161
g162
sg163
Vswitch
p176
sg45
g52
sg44
I1
sg165
g166
sssg57
(dp177
sg68
(dp178
g13
(dp179
g47
(dp180
g76
g77
sssg20
(dp181
g47
(dp182
g76
g83
ssg52
(dp183
g76
g88
ssg30
(dp184
g76
g93
sssg25
(dp185
g47
(dp186
g76
g99
ssg52
(dp187
g76
g104
sssg30
(dp188
g20
g184
ssg47
(dp189
g13
g180
sg20
g182
sg25
g186
ssg52
(dp190
g20
g183
sg25
g187
sssg113
g178
sbsS'graphics'
p191
g0
(g7
g2
Ntp192
Rp193
(dp194
g11
(dp195
g13
(dp196
S'y'
p197
F732.3088
sS'x'
p198
F874.2248695652174
sg163
g164
ssg20
(dp199
g197
F526.4828
sg198
F609.0959899287705
sg163
g168
ssg25
(dp200
g197
F600.1544
sg198
F868.1124347826087
sg163
g170
ssg30
(dp201
g197
F609.8239512577893
sg198
F494.01430345304664
sg163
g172
ssg35
(dp202
g197
F568.1533756288947
sg198
F551.5551466909085
sg163
g43
sg45
S'r1_r3'
p203
ssg47
(dp204
g197
F586.3284
sg198
F724.1776764044944
sg163
g43
ssg52
(dp205
g197
F491.6568
sg198
F749.3553528089888
sg163
g43
sssg57
(dp206
sg68
(dp207
g13
(dp208
sg20
(dp209
sg25
(dp210
sg30
(dp211
sg35
(dp212
sg47
(dp213
sg52
(dp214
ssg113
g207
sbsS'input'
p215
g0
(g115
g2
Ntp216
Rp217
(dp218
g11
(dp219
g13
(dp220
g45
g13
sS'platform'
p221
g160
sS'host'
p222
g162
sS'device_type'
p223
g164
sg197
F732.3088
sg198
F874.2248695652174
sS'syntax'
p224
g166
sS'asn'
p225
I1
ssg20
(dp226
g45
g20
sg221
g160
sg222
g162
sg223
g168
sg197
F526.4828
sg198
F609.0959899287705
sg224
g166
sg225
I1
ssg25
(dp227
g45
g25
sg221
g160
sg222
g162
sg223
g170
sg197
F600.1544
sg198
F868.1124347826087
sg224
g166
sg225
I1
ssg30
(dp228
g45
g30
sg221
g160
sg222
g162
sg223
g172
sg197
F609.8239512577893
sg198
F494.01430345304664
sg224
g166
sg225
I1
ssg47
(dp229
g45
g47
sg221
g160
sg222
g162
sg223
g174
sg197
F586.3284
sg198
F724.1776764044944
sg224
g166
sg225
I1
ssg52
(dp230
g45
g52
sg221
g160
sg222
g162
sg223
g176
sg197
F491.6568
sg198
F749.3553528089888
sg224
g166
sg225
I1
sssg57
(dp231
S'timestamp'
p232
F1342524121.0
sS'node_default'
p233
(dp234
g221
g160
sg222
g162
sg225
V1
p235
sg223
S'router'
p236
sg224
g166
ssS'edge_default'
p237
(dp238
g131
S'physical'
p239
sssg127
(dp240
g13
(dp241
g47
(dp242
g131
g239
sS'id'
p243
S'e2'
p244
sg76
g77
sg45
Nsssg20
(dp245
g47
(dp246
g131
g239
sg243
S'e0'
p247
sg76
g83
sg45
Nssg52
(dp248
g131
g239
sg243
S'e4'
p249
sg76
g88
sg45
Nsssg25
(dp250
sg30
(dp251
g20
(dp252
g131
g239
sg243
S'e3'
p253
sg76
g93
sg45
Nsssg47
(dp254
g25
(dp255
g131
g239
sg243
S'e1'
p256
sg76
g99
sg45
Nsssg52
(dp257
g25
(dp258
g131
g239
sg243
S'e5'
p259
sg76
g104
sg45
Nssssg68
g240
sg147
(dp260
g13
(dp261
sg20
(dp262
g30
g252
ssg25
(dp263
g47
g255
sg52
g258
ssg30
(dp264
sg47
(dp265
g13
g242
sg20
g246
ssg52
(dp266
g20
g248
sssg113
g240
sbsS'ospf'
p267
g0
(g7
g2
Ntp268
Rp269
(dp270
g11
(dp271
g13
(dp272
g44
I1
ssg20
(dp273
g44
I1
ssg25
(dp274
g44
I1
ssg30
(dp275
g44
I1
ssg47
(dp276
g44
I1
ssg52
(dp277
g44
I1
sssg57
(dp278
sg68
(dp279
g13
(dp280
g47
(dp281
S'ospf_cost'
p282
NsS'cost'
p283
I1
sg76
g77
sS'area'
p284
I0
sssg20
(dp285
g47
(dp286
g282
Nsg283
I1
sg76
g83
sg284
I0
ssg52
(dp287
g282
Nsg283
I1
sg76
g88
sg284
I0
ssg30
(dp288
g282
Nsg283
I1
sg76
g93
sg284
I0
sssg25
(dp289
g47
(dp290
g282
Nsg283
I1
sg76
g99
sg284
I0
ssg52
(dp291
g282
Nsg283
I1
sg76
g104
sg284
I0
sssg30
(dp292
g20
g288
ssg47
(dp293
g13
g281
sg20
g286
sg25
g290
ssg52
(dp294
g20
g287
sg25
g291
sssg113
g279
sbsS'_'
p295
(lp296
g45
atp297
b.